target datalayout = "e-m:e-p270:32:32-p271:32:32-p272:64:64-i64:64-i128:128-f80:128-n8:16:32:64-S128"
target triple = "x86_64-pc-linux-gnu"

%struct.TwinVQContext = type { ptr, ptr, [3 x ptr], [3 x ptr], ptr, i32, [2 x [20 x float]], [3 x [2 x [40 x float]]], [4 x [4096 x i16]], [4 x [2 x i8]], [4 x i8], [2 x [4 x [2 x i8]]], [4 x i32], [4 x i32], ptr, ptr, ptr, [2 x i32], i32, [3 x ptr], ptr, i32, i32, i32, [2 x %struct.TwinVQFrameData], i32, ptr, ptr, ptr }
%struct.TwinVQFrameData = type { i32, i32, [1024 x i8], [60 x i8], [2 x i8], [32 x i8], [2 x [16 x [4 x i8]]], [2 x [16 x i8]], [2 x i8], [2 x [4 x i8]], [2 x i8], [2 x i32], [2 x i32] }
%struct.TwinVQModeTab = type { [3 x %struct.TwinVQFrameMode], i16, i8, ptr, i8, i8, i8, i8, ptr, i8, i8, i8, i8, i16 }
%struct.TwinVQFrameMode = type { i8, ptr, i8, ptr, i8, i8, ptr, ptr, i8 }

; Function Attrs: inlinehint nounwind uwtable
define internal void @twinvq_memset_float(ptr noundef %0, float noundef %1, i32 noundef %2) #5 {
  %4 = alloca ptr, align 8
  %5 = alloca float, align 4
  %6 = alloca i32, align 4
  store ptr %0, ptr %4, align 8, !tbaa !83
  store float %1, ptr %5, align 4, !tbaa !84
  store i32 %2, ptr %6, align 4, !tbaa !34
  br label %7

7:                                                ; preds = %11, %3
  %8 = load i32, ptr %6, align 4, !tbaa !34
  %9 = add nsw i32 %8, -1
  store i32 %9, ptr %6, align 4, !tbaa !34
  %10 = icmp ne i32 %8, 0
  br i1 %10, label %11, label %15

11:                                               ; preds = %7
  %12 = load float, ptr %5, align 4, !tbaa !84
  %13 = load ptr, ptr %4, align 8, !tbaa !83
  %14 = getelementptr inbounds nuw float, ptr %13, i32 1
  store ptr %14, ptr %4, align 8, !tbaa !83
  store float %12, ptr %13, align 4, !tbaa !84
  br label %7, !llvm.loop !102

15:                                               ; preds = %7
  ret void
}

; Function Attrs: nounwind uwtable
define internal void @dec_bark_env(ptr noundef %0, ptr noundef %1, i32 noundef %2, i32 noundef %3, ptr noundef %4, float noundef %5, i32 noundef %6) #4 {
  %8 = alloca ptr, align 8
  %9 = alloca ptr, align 8
  %10 = alloca i32, align 4
  %11 = alloca i32, align 4
  %12 = alloca ptr, align 8
  %13 = alloca float, align 4
  %14 = alloca i32, align 4
  %15 = alloca ptr, align 8
  %16 = alloca i32, align 4
  %17 = alloca i32, align 4
  %18 = alloca ptr, align 8
  %19 = alloca float, align 4
  %20 = alloca [3 x float], align 4
  %21 = alloca i32, align 4
  %22 = alloca i32, align 4
  %23 = alloca i32, align 4
  %24 = alloca float, align 4
  %25 = alloca float, align 4
  store ptr %0, ptr %8, align 8, !tbaa !29
  store ptr %1, ptr %9, align 8, !tbaa !52
  store i32 %2, ptr %10, align 4, !tbaa !34
  store i32 %3, ptr %11, align 4, !tbaa !34
  store ptr %4, ptr %12, align 8, !tbaa !83
  store float %5, ptr %13, align 4, !tbaa !84
  store i32 %6, ptr %14, align 4, !tbaa !34
  call void @llvm.lifetime.start.p0(i64 8, ptr %15) #7
  %26 = load ptr, ptr %8, align 8, !tbaa !29
  %27 = getelementptr inbounds nuw %struct.TwinVQContext, ptr %26, i32 0, i32 4
  %28 = load ptr, ptr %27, align 8, !tbaa !37
  store ptr %28, ptr %15, align 8, !tbaa !55
  call void @llvm.lifetime.start.p0(i64 4, ptr %16) #7
  call void @llvm.lifetime.start.p0(i64 4, ptr %17) #7
  call void @llvm.lifetime.start.p0(i64 8, ptr %18) #7
  %29 = load ptr, ptr %8, align 8, !tbaa !29
  %30 = getelementptr inbounds nuw %struct.TwinVQContext, ptr %29, i32 0, i32 7
  %31 = load i32, ptr %14, align 4, !tbaa !34
  %32 = zext i32 %31 to i64
  %33 = getelementptr inbounds nuw [3 x [2 x [40 x float]]], ptr %30, i64 0, i64 %32
  %34 = load i32, ptr %11, align 4, !tbaa !34
  %35 = sext i32 %34 to i64
  %36 = getelementptr inbounds [2 x [40 x float]], ptr %33, i64 0, i64 %35
  %37 = getelementptr inbounds [40 x float], ptr %36, i64 0, i64 0
  store ptr %37, ptr %18, align 8, !tbaa !83
  call void @llvm.lifetime.start.p0(i64 4, ptr %19) #7
  store float 0x3FD99999A0000000, ptr %20, align 4, !tbaa !84
  %38 = getelementptr inbounds float, ptr %20, i64 1
  store float 0x3FD6666660000000, ptr %38, align 4, !tbaa !84
  %39 = getelementptr inbounds float, ptr %20, i64 2
  store float 0x3FD1EB8520000000, ptr %39, align 4, !tbaa !84
  %40 = load i32, ptr %14, align 4, !tbaa !34
  %41 = zext i32 %40 to i64
  %42 = getelementptr inbounds nuw [3 x float], ptr %20, i64 0, i64 %41
  %43 = load float, ptr %42, align 4, !tbaa !84
  store float %43, ptr %19, align 4, !tbaa !84
  call void @llvm.lifetime.start.p0(i64 4, ptr %21) #7
  %44 = load ptr, ptr %15, align 8, !tbaa !55
  %45 = getelementptr inbounds nuw %struct.TwinVQModeTab, ptr %44, i32 0, i32 0
  %46 = load i32, ptr %14, align 4, !tbaa !34
  %47 = zext i32 %46 to i64
  %48 = getelementptr inbounds nuw [3 x %struct.TwinVQFrameMode], ptr %45, i64 0, i64 %47
  %49 = getelementptr inbounds nuw %struct.TwinVQFrameMode, ptr %48, i32 0, i32 4
  %50 = load i8, ptr %49, align 8, !tbaa !63
  %51 = zext i8 %50 to i32
  store i32 %51, ptr %21, align 4, !tbaa !34
  call void @llvm.lifetime.start.p0(i64 4, ptr %22) #7
  %52 = load ptr, ptr %15, align 8, !tbaa !55
  %53 = getelementptr inbounds nuw %struct.TwinVQModeTab, ptr %52, i32 0, i32 0
  %54 = load i32, ptr %14, align 4, !tbaa !34
  %55 = zext i32 %54 to i64
  %56 = getelementptr inbounds nuw [3 x %struct.TwinVQFrameMode], ptr %53, i64 0, i64 %55
  %57 = getelementptr inbounds nuw %struct.TwinVQFrameMode, ptr %56, i32 0, i32 2
  %58 = load i8, ptr %57, align 8, !tbaa !85
  %59 = zext i8 %58 to i32
  %60 = load i32, ptr %21, align 4, !tbaa !34
  %61 = sdiv i32 %59, %60
  store i32 %61, ptr %22, align 4, !tbaa !34
  call void @llvm.lifetime.start.p0(i64 4, ptr %23) #7
  store i32 0, ptr %23, align 4, !tbaa !34
  store i32 0, ptr %16, align 4, !tbaa !34
  br label %62

62:                                               ; preds = %168, %7
  %63 = load i32, ptr %16, align 4, !tbaa !34
  %64 = load i32, ptr %22, align 4, !tbaa !34
  %65 = icmp slt i32 %63, %64
  br i1 %65, label %66, label %171

66:                                               ; preds = %62
  store i32 0, ptr %17, align 4, !tbaa !34
  br label %67

67:                                               ; preds = %162, %66
  %68 = load i32, ptr %17, align 4, !tbaa !34
  %69 = load i32, ptr %21, align 4, !tbaa !34
  %70 = icmp slt i32 %68, %69
  br i1 %70, label %71, label %167

71:                                               ; preds = %67
  call void @llvm.lifetime.start.p0(i64 4, ptr %24) #7
  %72 = load ptr, ptr %15, align 8, !tbaa !55
  %73 = getelementptr inbounds nuw %struct.TwinVQModeTab, ptr %72, i32 0, i32 0
  %74 = load i32, ptr %14, align 4, !tbaa !34
  %75 = zext i32 %74 to i64
  %76 = getelementptr inbounds nuw [3 x %struct.TwinVQFrameMode], ptr %73, i64 0, i64 %75
  %77 = getelementptr inbounds nuw %struct.TwinVQFrameMode, ptr %76, i32 0, i32 3
  %78 = load ptr, ptr %77, align 8, !tbaa !86
  %79 = load i32, ptr %22, align 4, !tbaa !34
  %80 = load ptr, ptr %9, align 8, !tbaa !52
  %81 = load i32, ptr %17, align 4, !tbaa !34
  %82 = sext i32 %81 to i64
  %83 = getelementptr inbounds i8, ptr %80, i64 %82
  %84 = load i8, ptr %83, align 1, !tbaa !33
  %85 = zext i8 %84 to i32
  %86 = mul nsw i32 %79, %85
  %87 = load i32, ptr %16, align 4, !tbaa !34
  %88 = add nsw i32 %86, %87
  %89 = sext i32 %88 to i64
  %90 = getelementptr inbounds i16, ptr %78, i64 %89
  %91 = load i16, ptr %90, align 2, !tbaa !87
  %92 = sext i16 %91 to i32
  %93 = sitofp i32 %92 to double
  %94 = fmul nsz double %93, 0x3F30000000000000
  %95 = fptrunc nsz double %94 to float
  store float %95, ptr %24, align 4, !tbaa !84
  call void @llvm.lifetime.start.p0(i64 4, ptr %25) #7
  %96 = load i32, ptr %10, align 4, !tbaa !34
  %97 = icmp ne i32 %96, 0
  br i1 %97, label %98, label %114

98:                                               ; preds = %71
  %99 = load float, ptr %19, align 4, !tbaa !84
  %100 = fpext nsz float %99 to double
  %101 = fsub nsz double 1.000000e+00, %100
  %102 = load float, ptr %24, align 4, !tbaa !84
  %103 = fpext nsz float %102 to double
  %104 = load float, ptr %19, align 4, !tbaa !84
  %105 = load ptr, ptr %18, align 8, !tbaa !83
  %106 = load i32, ptr %23, align 4, !tbaa !34
  %107 = sext i32 %106 to i64
  %108 = getelementptr inbounds float, ptr %105, i64 %107
  %109 = load float, ptr %108, align 4, !tbaa !84
  %110 = fmul nsz float %104, %109
  %111 = fpext nsz float %110 to double
  %112 = call nsz double @llvm.fmuladd.f64(double %101, double %103, double %111)
  %113 = fadd nsz double %112, 1.000000e+00
  br label %118

114:                                              ; preds = %71
  %115 = load float, ptr %24, align 4, !tbaa !84
  %116 = fpext nsz float %115 to double
  %117 = fadd nsz double %116, 1.000000e+00
  br label %118

118:                                              ; preds = %114, %98
  %119 = phi nsz double [ %113, %98 ], [ %117, %114 ]
  %120 = fptrunc nsz double %119 to float
  store float %120, ptr %25, align 4, !tbaa !84
  %121 = load float, ptr %24, align 4, !tbaa !84
  %122 = load ptr, ptr %18, align 8, !tbaa !83
  %123 = load i32, ptr %23, align 4, !tbaa !34
  %124 = sext i32 %123 to i64
  %125 = getelementptr inbounds float, ptr %122, i64 %124
  store float %121, ptr %125, align 4, !tbaa !84
  %126 = load float, ptr %25, align 4, !tbaa !84
  %127 = fpext nsz float %126 to double
  %128 = fcmp nsz olt double %127, -1.000000e+00
  br i1 %128, label %129, label %130

129:                                              ; preds = %118
  store float 1.000000e+00, ptr %25, align 4, !tbaa !84
  br label %130

130:                                              ; preds = %129, %118
  %131 = load ptr, ptr %12, align 8, !tbaa !83
  %132 = load float, ptr %25, align 4, !tbaa !84
  %133 = load float, ptr %13, align 4, !tbaa !84
  %134 = fmul nsz float %132, %133
  %135 = load ptr, ptr %15, align 8, !tbaa !55
  %136 = getelementptr inbounds nuw %struct.TwinVQModeTab, ptr %135, i32 0, i32 0
  %137 = load i32, ptr %14, align 4, !tbaa !34
  %138 = zext i32 %137 to i64
  %139 = getelementptr inbounds nuw [3 x %struct.TwinVQFrameMode], ptr %136, i64 0, i64 %138
  %140 = getelementptr inbounds nuw %struct.TwinVQFrameMode, ptr %139, i32 0, i32 1
  %141 = load ptr, ptr %140, align 8, !tbaa !88
  %142 = load i32, ptr %23, align 4, !tbaa !34
  %143 = sext i32 %142 to i64
  %144 = getelementptr inbounds i16, ptr %141, i64 %143
  %145 = load i16, ptr %144, align 2, !tbaa !87
  %146 = zext i16 %145 to i32
  call void @twinvq_memset_float(ptr noundef %131, float noundef %134, i32 noundef %146)
  %147 = load ptr, ptr %15, align 8, !tbaa !55
  %148 = getelementptr inbounds nuw %struct.TwinVQModeTab, ptr %147, i32 0, i32 0
  %149 = load i32, ptr %14, align 4, !tbaa !34
  %150 = zext i32 %149 to i64
  %151 = getelementptr inbounds nuw [3 x %struct.TwinVQFrameMode], ptr %148, i64 0, i64 %150
  %152 = getelementptr inbounds nuw %struct.TwinVQFrameMode, ptr %151, i32 0, i32 1
  %153 = load ptr, ptr %152, align 8, !tbaa !88
  %154 = load i32, ptr %23, align 4, !tbaa !34
  %155 = sext i32 %154 to i64
  %156 = getelementptr inbounds i16, ptr %153, i64 %155
  %157 = load i16, ptr %156, align 2, !tbaa !87
  %158 = zext i16 %157 to i32
  %159 = load ptr, ptr %12, align 8, !tbaa !83
  %160 = sext i32 %158 to i64
  %161 = getelementptr inbounds float, ptr %159, i64 %160
  store ptr %161, ptr %12, align 8, !tbaa !83
  call void @llvm.lifetime.end.p0(i64 4, ptr %25) #7
  call void @llvm.lifetime.end.p0(i64 4, ptr %24) #7
  br label %162

162:                                              ; preds = %130
  %163 = load i32, ptr %17, align 4, !tbaa !34
  %164 = add nsw i32 %163, 1
  store i32 %164, ptr %17, align 4, !tbaa !34
  %165 = load i32, ptr %23, align 4, !tbaa !34
  %166 = add nsw i32 %165, 1
  store i32 %166, ptr %23, align 4, !tbaa !34
  br label %67, !llvm.loop !89

167:                                              ; preds = %67
  br label %168

168:                                              ; preds = %167
  %169 = load i32, ptr %16, align 4, !tbaa !34
  %170 = add nsw i32 %169, 1
  store i32 %170, ptr %16, align 4, !tbaa !34
  br label %62, !llvm.loop !90

171:                                              ; preds = %62
  call void @llvm.lifetime.end.p0(i64 4, ptr %23) #7
  call void @llvm.lifetime.end.p0(i64 4, ptr %22) #7
  call void @llvm.lifetime.end.p0(i64 4, ptr %21) #7
  call void @llvm.lifetime.end.p0(i64 4, ptr %19) #7
  call void @llvm.lifetime.end.p0(i64 8, ptr %18) #7
  call void @llvm.lifetime.end.p0(i64 4, ptr %17) #7
  call void @llvm.lifetime.end.p0(i64 4, ptr %16) #7
  call void @llvm.lifetime.end.p0(i64 8, ptr %15) #7
  ret void
}